target datalayout = "e-m:e-p270:32:32-p271:32:32-p272:64:64-i64:64-i128:128-f80:128-n8:16:32:64-S128"
target triple = "x86_64-pc-linux-gnu"

%struct.PyEvent = type { i8 }
%struct.PyMutex = type { i8 }
%struct.test_data_counter = type { %struct.PyMutex, i64 }
%struct.thread_data_counter = type { ptr, %struct.PyEvent }

; Function Attrs: inlinehint nounwind uwtable
define internal i32 @_Py_atomic_compare_exchange_uint8(ptr noundef %0, ptr noundef %1, i8 noundef zeroext %2) #4 {
  %4 = alloca ptr, align 8
  %5 = alloca ptr, align 8
  %6 = alloca i8, align 1
  %7 = alloca i8, align 1
  %8 = alloca i8, align 1
  store ptr %0, ptr %4, align 8, !tbaa !41
  store ptr %1, ptr %5, align 8, !tbaa !41
  store i8 %2, ptr %6, align 1, !tbaa !15
  %9 = load ptr, ptr %4, align 8, !tbaa !41
  %10 = load ptr, ptr %5, align 8, !tbaa !41
  %11 = load i8, ptr %6, align 1, !tbaa !15
  store i8 %11, ptr %7, align 1, !tbaa !15
  %12 = load i8, ptr %10, align 1
  %13 = load i8, ptr %7, align 1
  %14 = cmpxchg ptr %9, i8 %12, i8 %13 seq_cst seq_cst, align 1
  %15 = extractvalue { i8, i1 } %14, 0
  %16 = extractvalue { i8, i1 } %14, 1
  br i1 %16, label %18, label %17

17:                                               ; preds = %3
  store i8 %15, ptr %10, align 1
  br label %18

18:                                               ; preds = %17, %3
  %19 = zext i1 %16 to i8
  store i8 %19, ptr %8, align 1, !tbaa !43
  %20 = load i8, ptr %8, align 1, !tbaa !43, !range !45, !noundef !46
  %21 = trunc i8 %20 to i1
  %22 = zext i1 %21 to i32
  ret i32 %22
}

; Function Attrs: inlinehint nounwind uwtable
define internal void @_PyMutex_Unlock(ptr noundef %0) #4 {
  %2 = alloca ptr, align 8
  %3 = alloca i8, align 1
  store ptr %0, ptr %2, align 8, !tbaa !39
  call void @llvm.lifetime.start.p0(i64 1, ptr %3) #8
  store i8 1, ptr %3, align 1, !tbaa !15
  %4 = load ptr, ptr %2, align 8, !tbaa !39
  %5 = getelementptr inbounds nuw %struct.PyMutex, ptr %4, i32 0, i32 0
  %6 = call i32 @_Py_atomic_compare_exchange_uint8(ptr noundef %5, ptr noundef %3, i8 noundef zeroext 0)
  %7 = icmp ne i32 %6, 0
  br i1 %7, label %10, label %8

8:                                                ; preds = %1
  %9 = load ptr, ptr %2, align 8, !tbaa !39
  call void @PyMutex_Unlock(ptr noundef %9)
  br label %10

10:                                               ; preds = %8, %1
  call void @llvm.lifetime.end.p0(i64 1, ptr %3) #8
  ret void
}

; Function Attrs: nounwind uwtable
define internal void @pysleep(i32 noundef %0) #0 {
  %2 = alloca i32, align 4
  store i32 %0, ptr %2, align 4, !tbaa !14
  %3 = load i32, ptr %2, align 4, !tbaa !14
  %4 = mul i32 %3, 1000
  %5 = call i32 @usleep(i32 noundef %4)
  ret void
}

; Function Attrs: inlinehint nounwind uwtable
define internal void @_PyMutex_Lock(ptr noundef %0) #4 {
  %2 = alloca ptr, align 8
  %3 = alloca i8, align 1
  store ptr %0, ptr %2, align 8, !tbaa !39
  call void @llvm.lifetime.start.p0(i64 1, ptr %3) #8
  store i8 0, ptr %3, align 1, !tbaa !15
  %4 = load ptr, ptr %2, align 8, !tbaa !39
  %5 = getelementptr inbounds nuw %struct.PyMutex, ptr %4, i32 0, i32 0
  %6 = call i32 @_Py_atomic_compare_exchange_uint8(ptr noundef %5, ptr noundef %3, i8 noundef zeroext 1)
  %7 = icmp ne i32 %6, 0
  br i1 %7, label %10, label %8

8:                                                ; preds = %1
  %9 = load ptr, ptr %2, align 8, !tbaa !39
  call void @PyMutex_Lock(ptr noundef %9)
  br label %10

10:                                               ; preds = %8, %1
  call void @llvm.lifetime.end.p0(i64 1, ptr %3) #8
  ret void
}

; Function Attrs: nounwind uwtable
define internal void @slow_counter_thread(ptr noundef %0) #0 {
  %2 = alloca ptr, align 8
  %3 = alloca ptr, align 8
  %4 = alloca ptr, align 8
  %5 = alloca i64, align 8
  store ptr %0, ptr %2, align 8, !tbaa !47
  call void @llvm.lifetime.start.p0(i64 8, ptr %3) #8
  %6 = load ptr, ptr %2, align 8, !tbaa !47
  store ptr %6, ptr %3, align 8, !tbaa !52
  call void @llvm.lifetime.start.p0(i64 8, ptr %4) #8
  %7 = load ptr, ptr %3, align 8, !tbaa !52
  %8 = getelementptr inbounds nuw %struct.thread_data_counter, ptr %7, i32 0, i32 0
  %9 = load ptr, ptr %8, align 8, !tbaa !20
  store ptr %9, ptr %4, align 8, !tbaa !54
  call void @llvm.lifetime.start.p0(i64 8, ptr %5) #8
  store i64 0, ptr %5, align 8, !tbaa !18
  br label %10

10:                                               ; preds = %28, %1
  %11 = load i64, ptr %5, align 8, !tbaa !18
  %12 = icmp slt i64 %11, 100
  br i1 %12, label %14, label %13

13:                                               ; preds = %10
  call void @llvm.lifetime.end.p0(i64 8, ptr %5) #8
  br label %31

14:                                               ; preds = %10
  %15 = load ptr, ptr %4, align 8, !tbaa !54
  %16 = getelementptr inbounds nuw %struct.test_data_counter, ptr %15, i32 0, i32 0
  call void @_PyMutex_Lock(ptr noundef %16)
  %17 = load i64, ptr %5, align 8, !tbaa !18
  %18 = srem i64 %17, 7
  %19 = icmp eq i64 %18, 0
  br i1 %19, label %20, label %21

20:                                               ; preds = %14
  call void @pysleep(i32 noundef 2)
  br label %21

21:                                               ; preds = %20, %14
  %22 = load ptr, ptr %4, align 8, !tbaa !54
  %23 = getelementptr inbounds nuw %struct.test_data_counter, ptr %22, i32 0, i32 1
  %24 = load i64, ptr %23, align 8, !tbaa !25
  %25 = add i64 %24, 1
  store i64 %25, ptr %23, align 8, !tbaa !25
  %26 = load ptr, ptr %4, align 8, !tbaa !54
  %27 = getelementptr inbounds nuw %struct.test_data_counter, ptr %26, i32 0, i32 0
  call void @_PyMutex_Unlock(ptr noundef %27)
  br label %28

28:                                               ; preds = %21
  %29 = load i64, ptr %5, align 8, !tbaa !18
  %30 = add i64 %29, 1
  store i64 %30, ptr %5, align 8, !tbaa !18
  br label %10, !llvm.loop !56

31:                                               ; preds = %13
  %32 = load ptr, ptr %3, align 8, !tbaa !52
  %33 = getelementptr inbounds nuw %struct.thread_data_counter, ptr %32, i32 0, i32 1
  call void @_PyEvent_Notify(ptr noundef %33)
  call void @llvm.lifetime.end.p0(i64 8, ptr %4) #8
  call void @llvm.lifetime.end.p0(i64 8, ptr %3) #8
  ret void
}