; Function Attrs: nounwind uwtable
define internal void @slow_counter_thread(ptr noundef %0) #0 {
  %2 = load ptr, ptr %0, align 8, !tbaa !13
  %3 = getelementptr inbounds nuw i8, ptr %2, i64 8
  br label %6

4:                                                ; preds = %_PyMutex_Unlock.exit
  %5 = getelementptr inbounds nuw i8, ptr %0, i64 8
  tail call void @_PyEvent_Notify(ptr noundef nonnull %5) #6
  ret void

6:                                                ; preds = %1, %_PyMutex_Unlock.exit
  %.08 = phi i64 [ 0, %1 ], [ %20, %_PyMutex_Unlock.exit ]
  %7 = cmpxchg ptr %2, i8 0, i8 1 seq_cst seq_cst, align 1
  %8 = extractvalue { i8, i1 } %7, 1
  br i1 %8, label %_PyMutex_Lock.exit, label %9

9:                                                ; preds = %6
  tail call void @PyMutex_Lock(ptr noundef %2) #6
  br label %_PyMutex_Lock.exit

_PyMutex_Lock.exit:                               ; preds = %6, %9
  %.lhs.trunc = trunc nuw i64 %.08 to i8
  %10 = urem i8 %.lhs.trunc, 7
  %11 = icmp eq i8 %10, 0
  br i1 %11, label %12, label %14

12:                                               ; preds = %_PyMutex_Lock.exit
  %13 = tail call i32 @usleep(i32 noundef 2000) #6
  br label %14

14:                                               ; preds = %12, %_PyMutex_Lock.exit
  %15 = load i64, ptr %3, align 8, !tbaa !18
  %16 = add i64 %15, 1
  store i64 %16, ptr %3, align 8, !tbaa !18
  %17 = cmpxchg ptr %2, i8 1, i8 0 seq_cst seq_cst, align 1
  %18 = extractvalue { i8, i1 } %17, 1
  br i1 %18, label %_PyMutex_Unlock.exit, label %19

19:                                               ; preds = %14
  tail call void @PyMutex_Unlock(ptr noundef nonnull %2) #6
  br label %_PyMutex_Unlock.exit

_PyMutex_Unlock.exit:                             ; preds = %14, %19
  %20 = add nuw nsw i64 %.08, 1
  %exitcond.not = icmp eq i64 %20, 100
  br i1 %exitcond.not, label %4, label %6, !llvm.loop !38
}